; Function Attrs: mustprogress nofree norecurse nosync nounwind willreturn memory(read, argmem: none, inaccessiblemem: none) uwtable
define hidden noundef ptr @_ZN10VM_Version21cpu_model_descriptionEv() local_unnamed_addr #3 align 2 {
  %1 = load i32, ptr getelementptr inbounds (i8, ptr @_ZN10VM_Version11_cpuid_infoE, i64 16), align 8
  %2 = lshr i32 %1, 8
  %3 = and i32 %2, 15
  %4 = lshr i32 %1, 20
  %5 = and i32 %4, 255
  %6 = add nuw nsw i32 %3, %5
  %7 = icmp eq i32 %6, 6
  br i1 %7, label %.preheader.preheader, label %.loopexit

.preheader.preheader:                             ; preds = %0
  %8 = lshr i32 %1, 12
  %9 = and i32 %8, 240
  %10 = lshr i32 %1, 4
  %11 = and i32 %10, 15
  %12 = or disjoint i32 %9, %11
  %13 = icmp ugt i32 %12, 70
  br i1 %13, label %.loopexit, label %.loopexit.split.loop.exit10

.loopexit.split.loop.exit10:                      ; preds = %.preheader.preheader
  %14 = zext nneg i32 %12 to i64
  %15 = getelementptr inbounds [72 x ptr], ptr @_ZL21_model_id_pentium_pro, i64 0, i64 %14
  %16 = load ptr, ptr %15, align 8
  br label %.loopexit

.loopexit:                                        ; preds = %.preheader.preheader, %.loopexit.split.loop.exit10, %0
  %.1 = phi ptr [ null, %0 ], [ %16, %.loopexit.split.loop.exit10 ], [ null, %.preheader.preheader ]
  ret ptr %.1
}